; Function Attrs: mustprogress uwtable
define hidden void @_ZN7grobner12del_monomialEPNS_8monomialE(ptr nocapture noundef nonnull readonly align 8 dereferenceable(228) %this, ptr noundef %m) local_unnamed_addr #3 align 2 personality ptr @__gxx_personality_v0 {
entry:
  %m_vars = getelementptr inbounds i8, ptr %m, i64 32
  %0 = load ptr, ptr %m_vars, align 8
  %cmp.i.i = icmp eq ptr %0, null
  br i1 %cmp.i.i, label %_ZN10ptr_vectorI4exprED2Ev.exit.i.i, label %_ZN6vectorIP4exprLb0EjE3endEv.exit

_ZN6vectorIP4exprLb0EjE3endEv.exit:               ; preds = %entry
  %arrayidx.i.i = getelementptr inbounds i8, ptr %0, i64 -4
  %1 = load i32, ptr %arrayidx.i.i, align 4
  %2 = zext i32 %1 to i64
  %add.ptr.i = getelementptr inbounds ptr, ptr %0, i64 %2
  %cmp.not6 = icmp eq i32 %1, 0
  br i1 %cmp.not6, label %if.end.i, label %for.body.lr.ph

for.body.lr.ph:                                   ; preds = %_ZN6vectorIP4exprLb0EjE3endEv.exit
  %m_manager = getelementptr inbounds i8, ptr %this, i64 32
  br label %for.body

for.body:                                         ; preds = %for.body.lr.ph, %_ZN11ast_manager7dec_refEP3ast.exit
  %__begin1.07 = phi ptr [ %0, %for.body.lr.ph ], [ %incdec.ptr, %_ZN11ast_manager7dec_refEP3ast.exit ]
  %3 = load ptr, ptr %__begin1.07, align 8
  %4 = load ptr, ptr %m_manager, align 8
  %tobool.not.i = icmp eq ptr %3, null
  br i1 %tobool.not.i, label %_ZN11ast_manager7dec_refEP3ast.exit, label %if.then.i

if.then.i:                                        ; preds = %for.body
  %m_ref_count.i.i = getelementptr inbounds i8, ptr %3, i64 8
  %5 = load i32, ptr %m_ref_count.i.i, align 4
  %dec.i.i = add i32 %5, -1
  store i32 %dec.i.i, ptr %m_ref_count.i.i, align 4
  %cmp.i = icmp eq i32 %dec.i.i, 0
  br i1 %cmp.i, label %if.then2.i, label %_ZN11ast_manager7dec_refEP3ast.exit

if.then2.i:                                       ; preds = %if.then.i
  tail call void @_ZN11ast_manager11delete_nodeEP3ast(ptr noundef nonnull align 8 dereferenceable(976) %4, ptr noundef nonnull %3)
  br label %_ZN11ast_manager7dec_refEP3ast.exit

_ZN11ast_manager7dec_refEP3ast.exit:              ; preds = %for.body, %if.then.i, %if.then2.i
  %incdec.ptr = getelementptr inbounds i8, ptr %__begin1.07, i64 8
  %cmp.not = icmp eq ptr %incdec.ptr, %add.ptr.i
  br i1 %cmp.not, label %for.end, label %for.body

for.end:                                          ; preds = %_ZN11ast_manager7dec_refEP3ast.exit
  %cmp.i5 = icmp eq ptr %m, null
  br i1 %cmp.i5, label %_Z7deallocIN7grobner8monomialEEvPT_.exit, label %if.end.i

if.end.i:                                         ; preds = %_ZN6vectorIP4exprLb0EjE3endEv.exit, %for.end
  %.pr = load ptr, ptr %m_vars, align 8
  %tobool.not.i.i.i.i.i = icmp eq ptr %.pr, null
  br i1 %tobool.not.i.i.i.i.i, label %_ZN10ptr_vectorI4exprED2Ev.exit.i.i, label %if.then.i.i.i.i.i

if.then.i.i.i.i.i:                                ; preds = %if.end.i
  %add.ptr.i.i.i.i.i.i = getelementptr inbounds i8, ptr %.pr, i64 -8
  invoke void @_ZN6memory10deallocateEPv(ptr noundef nonnull %add.ptr.i.i.i.i.i.i)
          to label %_ZN10ptr_vectorI4exprED2Ev.exit.i.i unwind label %terminate.lpad.i.i.i.i

terminate.lpad.i.i.i.i:                           ; preds = %if.then.i.i.i.i.i
  %6 = landingpad { ptr, i32 }
          catch ptr null
  %7 = extractvalue { ptr, i32 } %6, 0
  tail call void @__clang_call_terminate(ptr %7) #19
  unreachable

_ZN10ptr_vectorI4exprED2Ev.exit.i.i:              ; preds = %entry, %if.then.i.i.i.i.i, %if.end.i
  %8 = load ptr, ptr @_ZN8rational13g_mpq_managerE, align 8
  invoke void @_ZN11mpz_managerILb1EE3delEPS0_R3mpz(ptr noundef %8, ptr noundef nonnull align 8 dereferenceable(16) %m)
          to label %.noexc.i.i.i unwind label %terminate.lpad.i.i.i

.noexc.i.i.i:                                     ; preds = %_ZN10ptr_vectorI4exprED2Ev.exit.i.i
  %m_den.i.i.i.i = getelementptr inbounds i8, ptr %m, i64 16
  invoke void @_ZN11mpz_managerILb1EE3delEPS0_R3mpz(ptr noundef %8, ptr noundef nonnull align 8 dereferenceable(16) %m_den.i.i.i.i)
          to label %_ZN7grobner8monomialD2Ev.exit.i unwind label %terminate.lpad.i.i.i

terminate.lpad.i.i.i:                             ; preds = %.noexc.i.i.i, %_ZN10ptr_vectorI4exprED2Ev.exit.i.i
  %9 = landingpad { ptr, i32 }
          catch ptr null
  %10 = extractvalue { ptr, i32 } %9, 0
  tail call void @__clang_call_terminate(ptr %10) #19
  unreachable

_ZN7grobner8monomialD2Ev.exit.i:                  ; preds = %.noexc.i.i.i
  tail call void @_ZN6memory10deallocateEPv(ptr noundef nonnull %m)
  br label %_Z7deallocIN7grobner8monomialEEvPT_.exit

_Z7deallocIN7grobner8monomialEEvPT_.exit:         ; preds = %for.end, %_ZN7grobner8monomialD2Ev.exit.i
  ret void
}